target datalayout = "e-m:e-p270:32:32-p271:32:32-p272:64:64-i64:64-i128:128-f80:128-n8:16:32:64-S128"
target triple = "x86_64-unknown-linux-gnu"

%"class.v8::IndirectHandleBase" = type { ptr }
%"class.node::MemoryRetainer" = type { ptr }
%"class.std::__shared_count" = type { ptr }
%"class.std::shared_ptr.302" = type { %"class.std::__shared_ptr.303" }
%"class.std::__shared_ptr.303" = type { ptr, %"class.std::__shared_count" }
%"class.node::quic::Stream" = type { %"class.node::AsyncWrap", %"class.node::bob::SourceImpl.base", %"class.node::DataQueue::BackpressureListener", %"class.node::AliasedStruct.398", %"class.node::AliasedStruct.399", %"class.node::BaseObjectPtrImpl.396", i32, i32, %"class.std::unique_ptr.400", %"class.std::shared_ptr.302", %"class.std::vector.408", i32, i64, %"class.node::ListNode.413" }
%"class.node::AsyncWrap" = type { %"class.node::BaseObject", i32, i8, double, double }
%"class.node::BaseObject" = type { %"class.node::MemoryRetainer", %"class.v8::Global", ptr, ptr }
%"class.v8::Global" = type { %"class.v8::PersistentBase" }
%"class.v8::PersistentBase" = type { %"class.v8::IndirectHandleBase" }
%"class.node::bob::SourceImpl.base" = type <{ %"class.node::bob::Source", i8 }>
%"class.node::bob::Source" = type { ptr }
%"class.node::DataQueue::BackpressureListener" = type { ptr }
%"class.node::AliasedStruct.398" = type { ptr, %"class.std::shared_ptr.306", ptr, %"class.v8::Global.309" }
%"class.std::shared_ptr.306" = type { %"class.std::__shared_ptr.307" }
%"class.std::__shared_ptr.307" = type { ptr, %"class.std::__shared_count" }
%"class.v8::Global.309" = type { %"class.v8::PersistentBase.310" }
%"class.v8::PersistentBase.310" = type { %"class.v8::IndirectHandleBase" }
%"class.node::AliasedStruct.399" = type { ptr, %"class.std::shared_ptr.306", ptr, %"class.v8::Global.309" }
%"class.node::BaseObjectPtrImpl.396" = type { %union.anon.397 }
%union.anon.397 = type { ptr }
%"class.std::unique_ptr.400" = type { %"struct.std::__uniq_ptr_data.401" }
%"struct.std::__uniq_ptr_data.401" = type { %"class.std::__uniq_ptr_impl.402" }
%"class.std::__uniq_ptr_impl.402" = type { %"class.std::tuple.403" }
%"class.std::tuple.403" = type { %"struct.std::_Tuple_impl.404" }
%"struct.std::_Tuple_impl.404" = type { %"struct.std::_Head_base.407" }
%"struct.std::_Head_base.407" = type { ptr }
%"class.std::vector.408" = type { %"struct.std::_Vector_base.409" }
%"struct.std::_Vector_base.409" = type { %"struct.std::_Vector_base<v8::Local<v8::Value>, std::allocator<v8::Local<v8::Value>>>::_Vector_impl" }
%"struct.std::_Vector_base<v8::Local<v8::Value>, std::allocator<v8::Local<v8::Value>>>::_Vector_impl" = type { %"struct.std::_Vector_base<v8::Local<v8::Value>, std::allocator<v8::Local<v8::Value>>>::_Vector_impl_data" }
%"struct.std::_Vector_base<v8::Local<v8::Value>, std::allocator<v8::Local<v8::Value>>>::_Vector_impl_data" = type { ptr, ptr, ptr }
%"class.node::ListNode.413" = type { ptr, ptr }
%"struct.node::quic::Stream::State" = type { i64, i8, i8, i8, i8, i8, i8, i8, i8, i8, i8, i8, i8 }

; Function Attrs: mustprogress nounwind uwtable
define linkonce_odr dso_local void @_ZNSt12_Destroy_auxILb1EE9__destroyIPN2v85LocalINS2_5ValueEEEEEvT_S7_(ptr noundef %0, ptr noundef %1) #4 comdat align 2 {
entry:
  %.addr = alloca ptr, align 8
  %.addr1 = alloca ptr, align 8
  store ptr %0, ptr %.addr, align 8
  store ptr %1, ptr %.addr1, align 8
  ret void
}

; Function Attrs: mustprogress nounwind uwtable
define linkonce_odr dso_local void @_ZSt8_DestroyIPN2v85LocalINS0_5ValueEEEEvT_S5_(ptr noundef %__first, ptr noundef %__last) #4 comdat {
entry:
  %__first.addr = alloca ptr, align 8
  %__last.addr = alloca ptr, align 8
  store ptr %__first, ptr %__first.addr, align 8
  store ptr %__last, ptr %__last.addr, align 8
  %0 = load ptr, ptr %__first.addr, align 8
  %1 = load ptr, ptr %__last.addr, align 8
  call void @_ZNSt12_Destroy_auxILb1EE9__destroyIPN2v85LocalINS2_5ValueEEEEEvT_S7_(ptr noundef %0, ptr noundef %1)
  ret void
}

; Function Attrs: mustprogress nounwind uwtable
define linkonce_odr dso_local void @_ZSt8_DestroyIPN2v85LocalINS0_5ValueEEES3_EvT_S5_RSaIT0_E(ptr noundef %__first, ptr noundef %__last, ptr noundef nonnull align 1 dereferenceable(1) %0) #4 comdat {
entry:
  %__first.addr = alloca ptr, align 8
  %__last.addr = alloca ptr, align 8
  %.addr = alloca ptr, align 8
  store ptr %__first, ptr %__first.addr, align 8
  store ptr %__last, ptr %__last.addr, align 8
  store ptr %0, ptr %.addr, align 8
  %1 = load ptr, ptr %__first.addr, align 8
  %2 = load ptr, ptr %__last.addr, align 8
  call void @_ZSt8_DestroyIPN2v85LocalINS0_5ValueEEEEvT_S5_(ptr noundef %1, ptr noundef %2)
  ret void
}

; Function Attrs: mustprogress nounwind uwtable
define linkonce_odr dso_local noundef nonnull align 1 dereferenceable(1) ptr @_ZNSt12_Vector_baseIN2v85LocalINS0_5ValueEEESaIS3_EE19_M_get_Tp_allocatorEv(ptr noundef nonnull align 8 dereferenceable(24) %this) #4 comdat align 2 {
entry:
  %this.addr = alloca ptr, align 8
  store ptr %this, ptr %this.addr, align 8
  %this1 = load ptr, ptr %this.addr, align 8
  %_M_impl = getelementptr inbounds %"struct.std::_Vector_base.409", ptr %this1, i32 0, i32 0
  ret ptr %_M_impl
}

; Function Attrs: mustprogress nounwind uwtable
define linkonce_odr dso_local void @_ZNSt6vectorIN2v85LocalINS0_5ValueEEESaIS3_EE15_M_erase_at_endEPS3_(ptr noundef nonnull align 8 dereferenceable(24) %this, ptr noundef %__pos) #4 comdat align 2 {
entry:
  %this.addr = alloca ptr, align 8
  %__pos.addr = alloca ptr, align 8
  %__n = alloca i64, align 8
  store ptr %this, ptr %this.addr, align 8
  store ptr %__pos, ptr %__pos.addr, align 8
  %this1 = load ptr, ptr %this.addr, align 8
  %_M_impl = getelementptr inbounds %"struct.std::_Vector_base.409", ptr %this1, i32 0, i32 0
  %_M_finish = getelementptr inbounds %"struct.std::_Vector_base<v8::Local<v8::Value>, std::allocator<v8::Local<v8::Value>>>::_Vector_impl_data", ptr %_M_impl, i32 0, i32 1
  %0 = load ptr, ptr %_M_finish, align 8
  %1 = load ptr, ptr %__pos.addr, align 8
  %sub.ptr.lhs.cast = ptrtoint ptr %0 to i64
  %sub.ptr.rhs.cast = ptrtoint ptr %1 to i64
  %sub.ptr.sub = sub i64 %sub.ptr.lhs.cast, %sub.ptr.rhs.cast
  %sub.ptr.div = sdiv exact i64 %sub.ptr.sub, 8
  store i64 %sub.ptr.div, ptr %__n, align 8
  %2 = load i64, ptr %__n, align 8
  %tobool = icmp ne i64 %2, 0
  br i1 %tobool, label %if.then, label %if.end

if.then:                                          ; preds = %entry
  %3 = load ptr, ptr %__pos.addr, align 8
  %_M_impl2 = getelementptr inbounds %"struct.std::_Vector_base.409", ptr %this1, i32 0, i32 0
  %_M_finish3 = getelementptr inbounds %"struct.std::_Vector_base<v8::Local<v8::Value>, std::allocator<v8::Local<v8::Value>>>::_Vector_impl_data", ptr %_M_impl2, i32 0, i32 1
  %4 = load ptr, ptr %_M_finish3, align 8
  %call = call noundef nonnull align 1 dereferenceable(1) ptr @_ZNSt12_Vector_baseIN2v85LocalINS0_5ValueEEESaIS3_EE19_M_get_Tp_allocatorEv(ptr noundef nonnull align 8 dereferenceable(24) %this1) #3
  call void @_ZSt8_DestroyIPN2v85LocalINS0_5ValueEEES3_EvT_S5_RSaIT0_E(ptr noundef %3, ptr noundef %4, ptr noundef nonnull align 1 dereferenceable(1) %call)
  %5 = load ptr, ptr %__pos.addr, align 8
  %_M_impl4 = getelementptr inbounds %"struct.std::_Vector_base.409", ptr %this1, i32 0, i32 0
  %_M_finish5 = getelementptr inbounds %"struct.std::_Vector_base<v8::Local<v8::Value>, std::allocator<v8::Local<v8::Value>>>::_Vector_impl_data", ptr %_M_impl4, i32 0, i32 1
  store ptr %5, ptr %_M_finish5, align 8
  br label %if.end

if.end:                                           ; preds = %if.then, %entry
  ret void
}

; Function Attrs: mustprogress nounwind uwtable
define linkonce_odr dso_local noundef ptr @_ZNK4node13AliasedStructINS_4quic6Stream5StateEEptEv(ptr noundef nonnull align 8 dereferenceable(40) %this) #4 comdat align 2 {
entry:
  %this.addr = alloca ptr, align 8
  store ptr %this, ptr %this.addr, align 8
  %this1 = load ptr, ptr %this.addr, align 8
  %ptr_ = getelementptr inbounds %"class.node::AliasedStruct.399", ptr %this1, i32 0, i32 2
  %0 = load ptr, ptr %ptr_, align 8
  ret ptr %0
}

; Function Attrs: mustprogress nounwind uwtable
define linkonce_odr dso_local void @_ZNSt6vectorIN2v85LocalINS0_5ValueEEESaIS3_EE5clearEv(ptr noundef nonnull align 8 dereferenceable(24) %this) #4 comdat align 2 {
entry:
  %this.addr = alloca ptr, align 8
  store ptr %this, ptr %this.addr, align 8
  %this1 = load ptr, ptr %this.addr, align 8
  %_M_impl = getelementptr inbounds %"struct.std::_Vector_base.409", ptr %this1, i32 0, i32 0
  %_M_start = getelementptr inbounds %"struct.std::_Vector_base<v8::Local<v8::Value>, std::allocator<v8::Local<v8::Value>>>::_Vector_impl_data", ptr %_M_impl, i32 0, i32 0
  %0 = load ptr, ptr %_M_start, align 8
  call void @_ZNSt6vectorIN2v85LocalINS0_5ValueEEESaIS3_EE15_M_erase_at_endEPS3_(ptr noundef nonnull align 8 dereferenceable(24) %this1, ptr noundef %0) #3
  ret void
}

; Function Attrs: mustprogress nounwind uwtable
define dso_local noundef zeroext i1 @_ZNK4node4quic6Stream12is_destroyedEv(ptr noundef nonnull align 8 dereferenceable(256) %this) #4 align 2 {
entry:
  %this.addr = alloca ptr, align 8
  store ptr %this, ptr %this.addr, align 8
  %this1 = load ptr, ptr %this.addr, align 8
  %state_ = getelementptr inbounds %"class.node::quic::Stream", ptr %this1, i32 0, i32 4
  %call = call noundef ptr @_ZNK4node13AliasedStructINS_4quic6Stream5StateEEptEv(ptr noundef nonnull align 8 dereferenceable(40) %state_)
  %destroyed = getelementptr inbounds %"struct.node::quic::Stream::State", ptr %call, i32 0, i32 5
  %0 = load i8, ptr %destroyed, align 4
  %tobool = icmp ne i8 %0, 0
  ret i1 %tobool
}

; Function Attrs: mustprogress nounwind uwtable
define dso_local void @_ZN4node4quic6Stream12BeginHeadersENS0_11HeadersKindE(ptr noundef nonnull align 8 dereferenceable(256) %this, i32 noundef %kind) #4 align 2 {
entry:
  %this.addr = alloca ptr, align 8
  %kind.addr = alloca i32, align 4
  store ptr %this, ptr %this.addr, align 8
  store i32 %kind, ptr %kind.addr, align 4
  %this1 = load ptr, ptr %this.addr, align 8
  %call = call noundef zeroext i1 @_ZNK4node4quic6Stream12is_destroyedEv(ptr noundef nonnull align 8 dereferenceable(256) %this1)
  br i1 %call, label %if.then, label %if.end

if.then:                                          ; preds = %entry
  br label %return

if.end:                                           ; preds = %entry
  %headers_length_ = getelementptr inbounds %"class.node::quic::Stream", ptr %this1, i32 0, i32 12
  store i64 0, ptr %headers_length_, align 8
  %headers_ = getelementptr inbounds %"class.node::quic::Stream", ptr %this1, i32 0, i32 10
  call void @_ZNSt6vectorIN2v85LocalINS0_5ValueEEESaIS3_EE5clearEv(ptr noundef nonnull align 8 dereferenceable(24) %headers_) #3
  %0 = load i32, ptr %kind.addr, align 4
  %headers_kind_ = getelementptr inbounds %"class.node::quic::Stream", ptr %this1, i32 0, i32 11
  store i32 %0, ptr %headers_kind_, align 8
  br label %return

return:                                           ; preds = %if.end, %if.then
  ret void
}