; Function Attrs: mustprogress nofree norecurse nosync nounwind willreturn memory(read, argmem: readwrite, inaccessiblemem: none) uwtable
define dso_local void @_ZN4node4quic6Stream12BeginHeadersENS0_11HeadersKindE(ptr nocapture noundef nonnull align 8 dereferenceable(256) %this, i32 noundef %kind) local_unnamed_addr #12 align 2 {
entry:
  %ptr_.i.i = getelementptr inbounds i8, ptr %this, i64 144
  %0 = load ptr, ptr %ptr_.i.i, align 8
  %destroyed.i = getelementptr inbounds i8, ptr %0, i64 12
  %1 = load i8, ptr %destroyed.i, align 4
  %tobool.i.not = icmp eq i8 %1, 0
  br i1 %tobool.i.not, label %if.end, label %return

if.end:                                           ; preds = %entry
  %headers_length_ = getelementptr inbounds i8, ptr %this, i64 232
  store i64 0, ptr %headers_length_, align 8
  %headers_ = getelementptr inbounds i8, ptr %this, i64 200
  %2 = load ptr, ptr %headers_, align 8
  %_M_finish.i.i = getelementptr inbounds i8, ptr %this, i64 208
  %3 = load ptr, ptr %_M_finish.i.i, align 8
  %tobool.not.i.i = icmp eq ptr %3, %2
  br i1 %tobool.not.i.i, label %_ZNSt6vectorIN2v85LocalINS0_5ValueEEESaIS3_EE5clearEv.exit, label %if.then.i.i

if.then.i.i:                                      ; preds = %if.end
  store ptr %2, ptr %_M_finish.i.i, align 8
  br label %_ZNSt6vectorIN2v85LocalINS0_5ValueEEESaIS3_EE5clearEv.exit

_ZNSt6vectorIN2v85LocalINS0_5ValueEEESaIS3_EE5clearEv.exit: ; preds = %if.end, %if.then.i.i
  %headers_kind_ = getelementptr inbounds i8, ptr %this, i64 224
  store i32 %kind, ptr %headers_kind_, align 8
  br label %return

return:                                           ; preds = %entry, %_ZNSt6vectorIN2v85LocalINS0_5ValueEEESaIS3_EE5clearEv.exit
  ret void
}